   1              		.cpu cortex-m0plus
   2              		.fpu softvfp
   3              		.eabi_attribute 20, 1
   4              		.eabi_attribute 21, 1
   5              		.eabi_attribute 23, 3
   6              		.eabi_attribute 24, 1
   7              		.eabi_attribute 25, 1
   8              		.eabi_attribute 26, 1
   9              		.eabi_attribute 30, 4
  10              		.eabi_attribute 34, 0
  11              		.eabi_attribute 18, 4
  12              		.code	16
  13              		.file	"pff.c"
  14              		.section	.text.clust2sect,"ax",%progbits
  15              		.align	1
  16              		.code	16
  17              		.thumb_func
  19              	clust2sect:
  20 0000 064B     		ldr	r3, .L5
  21 0002 821E     		sub	r2, r0, #2
  22 0004 1B68     		ldr	r3, [r3]
  23 0006 0020     		mov	r0, #0
  24 0008 9968     		ldr	r1, [r3, #8]
  25 000a 0239     		sub	r1, r1, #2
  26 000c 8A42     		cmp	r2, r1
  27 000e 03D2     		bcs	.L2
  28 0010 9878     		ldrb	r0, [r3, #2]
  29 0012 5B69     		ldr	r3, [r3, #20]
  30 0014 5043     		mul	r0, r2
  31 0016 C018     		add	r0, r0, r3
  32              	.L2:
  33              		@ sp needed
  34 0018 7047     		bx	lr
  35              	.L6:
  36 001a C046     		.align	2
  37              	.L5:
  38 001c 00000000 		.word	.LANCHOR0
  40              		.section	.text.get_clust,"ax",%progbits
  41              		.align	1
  42              		.code	16
  43              		.thumb_func
  45              	get_clust:
  46 0000 084B     		ldr	r3, .L10
  47 0002 1B68     		ldr	r3, [r3]
  48 0004 1A78     		ldrb	r2, [r3]
  49 0006 0023     		mov	r3, #0
  50 0008 032A     		cmp	r2, #3
  51 000a 04D1     		bne	.L8
  52 000c 437D     		ldrb	r3, [r0, #21]
  53 000e 027D     		ldrb	r2, [r0, #20]
  54 0010 1B02     		lsl	r3, r3, #8
  55 0012 1343     		orr	r3, r2
  56 0014 1B04     		lsl	r3, r3, #16
  57              	.L8:
  58 0016 C27E     		ldrb	r2, [r0, #27]
  59 0018 807E     		ldrb	r0, [r0, #26]
  60 001a 1202     		lsl	r2, r2, #8
  61 001c 1043     		orr	r0, r2
  62 001e 1843     		orr	r0, r3
  63              		@ sp needed
  64 0020 7047     		bx	lr
  65              	.L11:
  66 0022 C046     		.align	2
  67              	.L10:
  68 0024 00000000 		.word	.LANCHOR0
  70              		.section	.text.dir_rewind,"ax",%progbits
  71              		.align	1
  72              		.code	16
  73              		.thumb_func
  75              	dir_rewind:
  76 0000 0F4B     		ldr	r3, .L19
  77 0002 10B5     		push	{r4, lr}
  78 0004 1A68     		ldr	r2, [r3]
  79 0006 0023     		mov	r3, #0
  80 0008 0380     		strh	r3, [r0]
  81 000a 8368     		ldr	r3, [r0, #8]
  82 000c 041C     		mov	r4, r0
  83 000e 012B     		cmp	r3, #1
  84 0010 14D0     		beq	.L17
  85 0012 9168     		ldr	r1, [r2, #8]
  86 0014 0120     		mov	r0, #1
  87 0016 8B42     		cmp	r3, r1
  88 0018 11D2     		bcs	.L13
  89 001a 002B     		cmp	r3, #0
  90 001c 03D1     		bne	.L14
  91 001e 1178     		ldrb	r1, [r2]
  92 0020 0329     		cmp	r1, #3
  93 0022 00D1     		bne	.L14
  94 0024 1369     		ldr	r3, [r2, #16]
  95              	.L14:
  96 0026 E360     		str	r3, [r4, #12]
  97 0028 002B     		cmp	r3, #0
  98 002a 03D0     		beq	.L15
  99 002c 181C     		mov	r0, r3
 100 002e FFF7FEFF 		bl	clust2sect
 101 0032 00E0     		b	.L16
 102              	.L15:
 103 0034 1069     		ldr	r0, [r2, #16]
 104              	.L16:
 105 0036 2061     		str	r0, [r4, #16]
 106 0038 0020     		mov	r0, #0
 107 003a 00E0     		b	.L13
 108              	.L17:
 109 003c 181C     		mov	r0, r3
 110              	.L13:
 111              		@ sp needed
 112 003e 10BD     		pop	{r4, pc}
 113              	.L20:
 114              		.align	2
 115              	.L19:
 116 0040 00000000 		.word	.LANCHOR0
 118              		.section	.text.get_fat,"ax",%progbits
 119              		.align	1
 120              		.code	16
 121              		.thumb_func
 123              	get_fat:
 124 0000 1C4B     		ldr	r3, .L29
 125 0002 13B5     		push	{r0, r1, r4, lr}
 126 0004 1A68     		ldr	r2, [r3]
 127 0006 0128     		cmp	r0, #1
 128 0008 32D9     		bls	.L28
 129 000a 9368     		ldr	r3, [r2, #8]
 130 000c 9842     		cmp	r0, r3
 131 000e 2FD2     		bcs	.L28
 132 0010 1378     		ldrb	r3, [r2]
 133 0012 022B     		cmp	r3, #2
 134 0014 02D0     		beq	.L25
 135 0016 032B     		cmp	r3, #3
 136 0018 10D0     		beq	.L26
 137 001a 29E0     		b	.L28
 138              	.L25:
 139 001c D268     		ldr	r2, [r2, #12]
 140 001e 010A     		lsr	r1, r0, #8
 141 0020 01AC     		add	r4, sp, #4
 142 0022 C0B2     		uxtb	r0, r0
 143 0024 8918     		add	r1, r1, r2
 144 0026 4200     		lsl	r2, r0, #1
 145 0028 201C     		mov	r0, r4
 146 002a FFF7FEFF 		bl	disk_readp
 147 002e 0028     		cmp	r0, #0
 148 0030 1ED1     		bne	.L28
 149 0032 6078     		ldrb	r0, [r4, #1]
 150 0034 2378     		ldrb	r3, [r4]
 151 0036 0002     		lsl	r0, r0, #8
 152 0038 1843     		orr	r0, r3
 153 003a 1AE0     		b	.L23
 154              	.L26:
 155 003c D368     		ldr	r3, [r2, #12]
 156 003e 7F22     		mov	r2, #127
 157 0040 C109     		lsr	r1, r0, #7
 158 0042 01AC     		add	r4, sp, #4
 159 0044 1040     		and	r0, r2
 160 0046 C918     		add	r1, r1, r3
 161 0048 8200     		lsl	r2, r0, #2
 162 004a 0423     		mov	r3, #4
 163 004c 201C     		mov	r0, r4
 164 004e FFF7FEFF 		bl	disk_readp
 165 0052 0028     		cmp	r0, #0
 166 0054 0CD1     		bne	.L28
 167 0056 E078     		ldrb	r0, [r4, #3]
 168 0058 A378     		ldrb	r3, [r4, #2]
 169 005a 0006     		lsl	r0, r0, #24
 170 005c 1B04     		lsl	r3, r3, #16
 171 005e 1843     		orr	r0, r3
 172 0060 2378     		ldrb	r3, [r4]
 173 0062 1843     		orr	r0, r3
 174 0064 6378     		ldrb	r3, [r4, #1]
 175 0066 1B02     		lsl	r3, r3, #8
 176 0068 1843     		orr	r0, r3
 177 006a 0001     		lsl	r0, r0, #4
 178 006c 0009     		lsr	r0, r0, #4
 179 006e 00E0     		b	.L23
 180              	.L28:
 181 0070 0120     		mov	r0, #1
 182              	.L23:
 183              		@ sp needed
 184 0072 16BD     		pop	{r1, r2, r4, pc}
 185              	.L30:
 186              		.align	2
 187              	.L29:
 188 0074 00000000 		.word	.LANCHOR0
 190              		.section	.text.check_fs,"ax",%progbits
 191              		.align	1
 192              		.code	16
 193              		.thumb_func
 195              	check_fs:
 196 0000 FF22     		mov	r2, #255
 197 0002 38B5     		push	{r3, r4, r5, lr}
 198 0004 5200     		lsl	r2, r2, #1
 199 0006 0223     		mov	r3, #2
 200 0008 041C     		mov	r4, r0
 201 000a 0D1C     		mov	r5, r1
 202 000c FFF7FEFF 		bl	disk_readp
 203 0010 0323     		mov	r3, #3
 204 0012 0028     		cmp	r0, #0
 205 0014 2CD1     		bne	.L32
 206 0016 6178     		ldrb	r1, [r4, #1]
 207 0018 2378     		ldrb	r3, [r4]
 208 001a 0902     		lsl	r1, r1, #8
 209 001c 1943     		orr	r1, r3
 210 001e 154A     		ldr	r2, .L39
 211 0020 09B2     		sxth	r1, r1
 212 0022 0223     		mov	r3, #2
 213 0024 9142     		cmp	r1, r2
 214 0026 23D1     		bne	.L32
 215 0028 201C     		mov	r0, r4
 216 002a 291C     		mov	r1, r5
 217 002c 3622     		mov	r2, #54
 218 002e FFF7FEFF 		bl	disk_readp
 219 0032 0028     		cmp	r0, #0
 220 0034 07D1     		bne	.L33
 221 0036 6278     		ldrb	r2, [r4, #1]
 222 0038 2378     		ldrb	r3, [r4]
 223 003a 1202     		lsl	r2, r2, #8
 224 003c 1A43     		orr	r2, r3
 225 003e 0E4B     		ldr	r3, .L39+4
 226 0040 12B2     		sxth	r2, r2
 227 0042 9A42     		cmp	r2, r3
 228 0044 13D0     		beq	.L37
 229              	.L33:
 230 0046 0223     		mov	r3, #2
 231 0048 201C     		mov	r0, r4
 232 004a 291C     		mov	r1, r5
 233 004c 5222     		mov	r2, #82
 234 004e FFF7FEFF 		bl	disk_readp
 235 0052 0123     		mov	r3, #1
 236 0054 0028     		cmp	r0, #0
 237 0056 0BD1     		bne	.L32
 238 0058 6378     		ldrb	r3, [r4, #1]
 239 005a 2278     		ldrb	r2, [r4]
 240 005c 1B02     		lsl	r3, r3, #8
 241 005e 1343     		orr	r3, r2
 242 0060 064A     		ldr	r2, .L39+8
 243 0062 1BB2     		sxth	r3, r3
 244 0064 9B18     		add	r3, r3, r2
 245 0066 5A1E     		sub	r2, r3, #1
 246 0068 9341     		sbc	r3, r3, r2
 247 006a DBB2     		uxtb	r3, r3
 248 006c 00E0     		b	.L32
 249              	.L37:
 250 006e 031C     		mov	r3, r0
 251              	.L32:
 252 0070 181C     		mov	r0, r3
 253              		@ sp needed
 254 0072 38BD     		pop	{r3, r4, r5, pc}
 255              	.L40:
 256              		.align	2
 257              	.L39:
 258 0074 55AAFFFF 		.word	-21931
 259 0078 46410000 		.word	16710
 260 007c BABEFFFF 		.word	-16710
 262              		.global	__aeabi_uidiv
 263              		.section	.text.pf_mount,"ax",%progbits
 264              		.align	1
 265              		.global	pf_mount
 266              		.code	16
 267              		.thumb_func
 269              	pf_mount:
 270 0000 F0B5     		push	{r4, r5, r6, r7, lr}
 271 0002 534B     		ldr	r3, .L66
 272 0004 0022     		mov	r2, #0
 273 0006 8DB0     		sub	sp, sp, #52
 274 0008 1A60     		str	r2, [r3]
 275 000a 051C     		mov	r5, r0
 276 000c FFF7FEFF 		bl	disk_initialize
 277 0010 0123     		mov	r3, #1
 278 0012 061C     		mov	r6, r0
 279 0014 1E40     		and	r6, r3
 280 0016 0220     		mov	r0, #2
 281 0018 002E     		cmp	r6, #0
 282 001a 00D0     		beq	.LCB312
 283 001c 96E0     		b	.L62	@long jump
 284              	.LCB312:
 285 001e 03AC     		add	r4, sp, #12
 286 0020 201C     		mov	r0, r4
 287 0022 311C     		mov	r1, r6
 288 0024 FFF7FEFF 		bl	check_fs
 289 0028 0128     		cmp	r0, #1
 290 002a 1DD1     		bne	.L43
 291 002c DF22     		mov	r2, #223
 292 002e 201C     		mov	r0, r4
 293 0030 311C     		mov	r1, r6
 294 0032 5200     		lsl	r2, r2, #1
 295 0034 1023     		mov	r3, #16
 296 0036 FFF7FEFF 		bl	disk_readp
 297 003a 0028     		cmp	r0, #0
 298 003c 01D0     		beq	.L44
 299              	.L46:
 300 003e 0120     		mov	r0, #1
 301 0040 84E0     		b	.L62
 302              	.L44:
 303 0042 2379     		ldrb	r3, [r4, #4]
 304 0044 002B     		cmp	r3, #0
 305 0046 01D1     		bne	.L45
 306              	.L47:
 307 0048 0620     		mov	r0, #6
 308 004a 7FE0     		b	.L62
 309              	.L45:
 310 004c E67A     		ldrb	r6, [r4, #11]
 311 004e A37A     		ldrb	r3, [r4, #10]
 312 0050 3606     		lsl	r6, r6, #24
 313 0052 1B04     		lsl	r3, r3, #16
 314 0054 1E43     		orr	r6, r3
 315 0056 237A     		ldrb	r3, [r4, #8]
 316 0058 201C     		mov	r0, r4
 317 005a 1E43     		orr	r6, r3
 318 005c 637A     		ldrb	r3, [r4, #9]
 319 005e 1B02     		lsl	r3, r3, #8
 320 0060 1E43     		orr	r6, r3
 321 0062 311C     		mov	r1, r6
 322 0064 FFF7FEFF 		bl	check_fs
 323              	.L43:
 324 0068 0328     		cmp	r0, #3
 325 006a E8D0     		beq	.L46
 326 006c 0028     		cmp	r0, #0
 327 006e EBD1     		bne	.L47
 328 0070 201C     		mov	r0, r4
 329 0072 311C     		mov	r1, r6
 330 0074 0D22     		mov	r2, #13
 331 0076 2423     		mov	r3, #36
 332 0078 FFF7FEFF 		bl	disk_readp
 333 007c 0028     		cmp	r0, #0
 334 007e DED1     		bne	.L46
 335 0080 A77A     		ldrb	r7, [r4, #10]
 336 0082 637A     		ldrb	r3, [r4, #9]
 337 0084 3F02     		lsl	r7, r7, #8
 338 0086 1F43     		orr	r7, r3
 339 0088 09D1     		bne	.L48
 340 008a A77E     		ldrb	r7, [r4, #26]
 341 008c 637E     		ldrb	r3, [r4, #25]
 342 008e 3F06     		lsl	r7, r7, #24
 343 0090 1B04     		lsl	r3, r3, #16
 344 0092 1F43     		orr	r7, r3
 345 0094 E37D     		ldrb	r3, [r4, #23]
 346 0096 1F43     		orr	r7, r3
 347 0098 237E     		ldrb	r3, [r4, #24]
 348 009a 1B02     		lsl	r3, r3, #8
 349 009c 1F43     		orr	r7, r3
 350              	.L48:
 351 009e E378     		ldrb	r3, [r4, #3]
 352 00a0 A278     		ldrb	r2, [r4, #2]
 353 00a2 5F43     		mul	r7, r3
 354 00a4 6378     		ldrb	r3, [r4, #1]
 355 00a6 1202     		lsl	r2, r2, #8
 356 00a8 1A43     		orr	r2, r3
 357 00aa 2178     		ldrb	r1, [r4]
 358 00ac B618     		add	r6, r6, r2
 359 00ae 0192     		str	r2, [sp, #4]
 360 00b0 EE60     		str	r6, [r5, #12]
 361 00b2 A970     		strb	r1, [r5, #2]
 362 00b4 6079     		ldrb	r0, [r4, #5]
 363 00b6 2379     		ldrb	r3, [r4, #4]
 364 00b8 0002     		lsl	r0, r0, #8
 365 00ba 1843     		orr	r0, r3
 366 00bc A880     		strh	r0, [r5, #4]
 367 00be E379     		ldrb	r3, [r4, #7]
 368 00c0 1B02     		lsl	r3, r3, #8
 369 00c2 0093     		str	r3, [sp]
 370 00c4 A279     		ldrb	r2, [r4, #6]
 371 00c6 1343     		orr	r3, r2
 372 00c8 0BD1     		bne	.L49
 373 00ca A37D     		ldrb	r3, [r4, #22]
 374 00cc 1B06     		lsl	r3, r3, #24
 375 00ce 9C46     		mov	ip, r3
 376 00d0 637D     		ldrb	r3, [r4, #21]
 377 00d2 6246     		mov	r2, ip
 378 00d4 1B04     		lsl	r3, r3, #16
 379 00d6 1A43     		orr	r2, r3
 380 00d8 E37C     		ldrb	r3, [r4, #19]
 381 00da 247D     		ldrb	r4, [r4, #20]
 382 00dc 1343     		orr	r3, r2
 383 00de 2402     		lsl	r4, r4, #8
 384 00e0 2343     		orr	r3, r4
 385              	.L49:
 386 00e2 019A     		ldr	r2, [sp, #4]
 387 00e4 0409     		lsr	r4, r0, #4
 388 00e6 981A     		sub	r0, r3, r2
 389 00e8 C01B     		sub	r0, r0, r7
 390 00ea 001B     		sub	r0, r0, r4
 391 00ec FFF7FEFF 		bl	__aeabi_uidiv
 392 00f0 184A     		ldr	r2, .L66+4
 393 00f2 1949     		ldr	r1, .L66+8
 394 00f4 831C     		add	r3, r0, #2
 395 00f6 8018     		add	r0, r0, r2
 396 00f8 AB60     		str	r3, [r5, #8]
 397 00fa 184A     		ldr	r2, .L66+12
 398 00fc 8842     		cmp	r0, r1
 399 00fe 20D9     		bls	.L50
 400 0100 9342     		cmp	r3, r2
 401 0102 A1D9     		bls	.L47
 402 0104 0323     		mov	r3, #3
 403              	.L54:
 404 0106 2B70     		strb	r3, [r5]
 405 0108 032B     		cmp	r3, #3
 406 010a 10D1     		bne	.L52
 407 010c 6B46     		mov	r3, sp
 408 010e 0F33     		add	r3, r3, #15
 409 0110 DA7F     		ldrb	r2, [r3, #31]
 410 0112 013B     		sub	r3, r3, #1
 411 0114 DB7F     		ldrb	r3, [r3, #31]
 412 0116 1206     		lsl	r2, r2, #24
 413 0118 1B04     		lsl	r3, r3, #16
 414 011a 1343     		orr	r3, r2
 415 011c 03AA     		add	r2, sp, #12
 416 011e D27F     		ldrb	r2, [r2, #31]
 417 0120 1343     		orr	r3, r2
 418 0122 6A46     		mov	r2, sp
 419 0124 0D32     		add	r2, r2, #13
 420 0126 D27F     		ldrb	r2, [r2, #31]
 421 0128 1202     		lsl	r2, r2, #8
 422 012a 1343     		orr	r3, r2
 423 012c 00E0     		b	.L65
 424              	.L52:
 425 012e BB19     		add	r3, r7, r6
 426              	.L65:
 427 0130 2B61     		str	r3, [r5, #16]
 428 0132 3619     		add	r6, r6, r4
 429 0134 064B     		ldr	r3, .L66
 430 0136 F719     		add	r7, r6, r7
 431 0138 0020     		mov	r0, #0
 432 013a 6F61     		str	r7, [r5, #20]
 433 013c 6870     		strb	r0, [r5, #1]
 434 013e 1D60     		str	r5, [r3]
 435 0140 04E0     		b	.L62
 436              	.L50:
 437 0142 9A42     		cmp	r2, r3
 438 0144 9B41     		sbc	r3, r3, r3
 439 0146 5B42     		neg	r3, r3
 440 0148 0233     		add	r3, r3, #2
 441 014a DCE7     		b	.L54
 442              	.L62:
 443 014c 0DB0     		add	sp, sp, #52
 444              		@ sp needed
 445 014e F0BD     		pop	{r4, r5, r6, r7, pc}
 446              	.L67:
 447              		.align	2
 448              	.L66:
 449 0150 00000000 		.word	.LANCHOR0
 450 0154 0AF0FFFF 		.word	-4086
 451 0158 FEEF0000 		.word	61438
 452 015c F6FF0000 		.word	65526
 454              		.section	.text.pf_open,"ax",%progbits
 455              		.align	1
 456              		.global	pf_open
 457              		.code	16
 458              		.thumb_func
 460              	pf_open:
 461 0000 F0B5     		push	{r4, r5, r6, r7, lr}
 462 0002 664B     		ldr	r3, .L120
 463 0004 041C     		mov	r4, r0
 464 0006 1F68     		ldr	r7, [r3]
 465 0008 93B0     		sub	sp, sp, #76
 466 000a 0520     		mov	r0, #5
 467 000c 002F     		cmp	r7, #0
 468 000e 00D1     		bne	.LCB525
 469 0010 C1E0     		b	.L110	@long jump
 470              	.LCB525:
 471 0012 0023     		mov	r3, #0
 472 0014 02A9     		add	r1, sp, #8
 473 0016 7B70     		strb	r3, [r7, #1]
 474 0018 0691     		str	r1, [sp, #24]
 475              	.L70:
 476 001a 2378     		ldrb	r3, [r4]
 477 001c 202B     		cmp	r3, #32
 478 001e 01D1     		bne	.L117
 479 0020 0134     		add	r4, r4, #1
 480 0022 FAE7     		b	.L70
 481              	.L117:
 482 0024 2F3B     		sub	r3, r3, #47
 483 0026 5A42     		neg	r2, r3
 484 0028 5341     		adc	r3, r3, r2
 485 002a E418     		add	r4, r4, r3
 486 002c 2378     		ldrb	r3, [r4]
 487 002e 0025     		mov	r5, #0
 488 0030 0795     		str	r5, [sp, #28]
 489 0032 1F2B     		cmp	r3, #31
 490 0034 48D8     		bhi	.L94
 491 0036 05A8     		add	r0, sp, #20
 492 0038 FFF7FEFF 		bl	dir_rewind
 493 003c 0AAB     		add	r3, sp, #40
 494 003e 1D70     		strb	r5, [r3]
 495 0040 A842     		cmp	r0, r5
 496 0042 00D1     		bne	.LCB555
 497 0044 81E0     		b	.L74	@long jump
 498              	.LCB555:
 499 0046 A6E0     		b	.L110
 500              	.L119:
 501 0048 0023     		mov	r3, #0
 502 004a 1A1C     		mov	r2, r3
 503 004c 0821     		mov	r1, #8
 504              	.L77:
 505 004e 551C     		add	r5, r2, #1
 506 0050 A25C     		ldrb	r2, [r4, r2]
 507 0052 EDB2     		uxtb	r5, r5
 508 0054 202A     		cmp	r2, #32
 509 0056 41D8     		bhi	.L118
 510              	.L78:
 511 0058 0023     		mov	r3, #0
 512 005a 2021     		mov	r1, #32
 513 005c 9142     		cmp	r1, r2
 514 005e 5B41     		adc	r3, r3, r3
 515 0060 C372     		strb	r3, [r0, #11]
 516 0062 05A8     		add	r0, sp, #20
 517 0064 6419     		add	r4, r4, r5
 518 0066 FFF7FEFF 		bl	dir_rewind
 519 006a 0028     		cmp	r0, #0
 520 006c 00D0     		beq	.LCB579
 521 006e 92E0     		b	.L110	@long jump
 522              	.LCB579:
 523              	.L92:
 524 0070 05AD     		add	r5, sp, #20
 525 0072 2A88     		ldrh	r2, [r5]
 526 0074 0F23     		mov	r3, #15
 527 0076 1A40     		and	r2, r3
 528 0078 0AAE     		add	r6, sp, #40
 529 007a 5201     		lsl	r2, r2, #5
 530 007c 301C     		mov	r0, r6
 531 007e 2969     		ldr	r1, [r5, #16]
 532 0080 2023     		mov	r3, #32
 533 0082 FFF7FEFF 		bl	disk_readp
 534 0086 0028     		cmp	r0, #0
 535 0088 00D0     		beq	.LCB596
 536 008a 81E0     		b	.L98	@long jump
 537              	.LCB596:
 538 008c 3378     		ldrb	r3, [r6]
 539 008e 002B     		cmp	r3, #0
 540 0090 00D1     		bne	.LCB599
 541 0092 7FE0     		b	.L101	@long jump
 542              	.LCB599:
 543 0094 6B46     		mov	r3, sp
 544 0096 3333     		add	r3, r3, #51
 545 0098 1978     		ldrb	r1, [r3]
 546 009a 0823     		mov	r3, #8
 547 009c 0B40     		and	r3, r1
 548 009e 28D1     		bne	.L82
 549 00a0 6A68     		ldr	r2, [r5, #4]
 550              	.L83:
 551 00a2 0AA8     		add	r0, sp, #40
 552 00a4 1E5C     		ldrb	r6, [r3, r0]
 553 00a6 0133     		add	r3, r3, #1
 554 00a8 B446     		mov	ip, r6
 555 00aa D618     		add	r6, r2, r3
 556 00ac 013E     		sub	r6, r6, #1
 557 00ae 3678     		ldrb	r6, [r6]
 558 00b0 6645     		cmp	r6, ip
 559 00b2 1ED1     		bne	.L82
 560 00b4 0B2B     		cmp	r3, #11
 561 00b6 F4D1     		bne	.L83
 562 00b8 D37A     		ldrb	r3, [r2, #11]
 563 00ba 002B     		cmp	r3, #0
 564 00bc 45D1     		bne	.L74
 565 00be CB06     		lsl	r3, r1, #27
 566 00c0 68D5     		bpl	.L101
 567 00c2 FFF7FEFF 		bl	get_clust
 568 00c6 0790     		str	r0, [sp, #28]
 569              	.L94:
 570 00c8 0698     		ldr	r0, [sp, #24]
 571 00ca 021C     		mov	r2, r0
 572 00cc 031C     		mov	r3, r0
 573 00ce 0B32     		add	r2, r2, #11
 574              	.L75:
 575 00d0 9342     		cmp	r3, r2
 576 00d2 B9D0     		beq	.L119
 577 00d4 2021     		mov	r1, #32
 578 00d6 1970     		strb	r1, [r3]
 579 00d8 0133     		add	r3, r3, #1
 580 00da F9E7     		b	.L75
 581              	.L118:
 582 00dc 2F2A     		cmp	r2, #47
 583 00de BBD0     		beq	.L78
 584 00e0 2E2A     		cmp	r2, #46
 585 00e2 4FD0     		beq	.L79
 586 00e4 8B42     		cmp	r3, r1
 587 00e6 B7D2     		bcs	.L78
 588 00e8 5E1C     		add	r6, r3, #1
 589 00ea C254     		strb	r2, [r0, r3]
 590 00ec F3B2     		uxtb	r3, r6
 591              	.L80:
 592 00ee 2A1C     		mov	r2, r5
 593 00f0 ADE7     		b	.L77
 594              	.L82:
 595 00f2 2A4E     		ldr	r6, .L120
 596 00f4 3668     		ldr	r6, [r6]
 597 00f6 0196     		str	r6, [sp, #4]
 598 00f8 2E88     		ldrh	r6, [r5]
 599 00fa 0136     		add	r6, r6, #1
 600 00fc B6B2     		uxth	r6, r6
 601 00fe 002E     		cmp	r6, #0
 602 0100 48D0     		beq	.L101
 603 0102 2B69     		ldr	r3, [r5, #16]
 604 0104 002B     		cmp	r3, #0
 605 0106 45D0     		beq	.L101
 606 0108 3107     		lsl	r1, r6, #28
 607 010a 1BD1     		bne	.L88
 608 010c E868     		ldr	r0, [r5, #12]
 609 010e 0133     		add	r3, r3, #1
 610 0110 2B61     		str	r3, [r5, #16]
 611 0112 0028     		cmp	r0, #0
 612 0114 04D1     		bne	.L89
 613 0116 019A     		ldr	r2, [sp, #4]
 614 0118 9388     		ldrh	r3, [r2, #4]
 615 011a B342     		cmp	r3, r6
 616 011c 3AD9     		bls	.L101
 617 011e 11E0     		b	.L88
 618              	.L89:
 619 0120 0199     		ldr	r1, [sp, #4]
 620 0122 3309     		lsr	r3, r6, #4
 621 0124 8A78     		ldrb	r2, [r1, #2]
 622 0126 013A     		sub	r2, r2, #1
 623 0128 1A42     		tst	r2, r3
 624 012a 0BD1     		bne	.L88
 625 012c FFF7FEFF 		bl	get_fat
 626 0130 0128     		cmp	r0, #1
 627 0132 2DD9     		bls	.L98
 628 0134 019A     		ldr	r2, [sp, #4]
 629 0136 9368     		ldr	r3, [r2, #8]
 630 0138 9842     		cmp	r0, r3
 631 013a 2BD2     		bcs	.L101
 632 013c E860     		str	r0, [r5, #12]
 633 013e FFF7FEFF 		bl	clust2sect
 634 0142 2861     		str	r0, [r5, #16]
 635              	.L88:
 636 0144 05AB     		add	r3, sp, #20
 637 0146 1E80     		strh	r6, [r3]
 638 0148 92E7     		b	.L92
 639              	.L74:
 640 014a 0AAC     		add	r4, sp, #40
 641 014c 2378     		ldrb	r3, [r4]
 642 014e 0320     		mov	r0, #3
 643 0150 002B     		cmp	r3, #0
 644 0152 20D0     		beq	.L110
 645 0154 E57A     		ldrb	r5, [r4, #11]
 646 0156 1023     		mov	r3, #16
 647 0158 1D40     		and	r5, r3
 648 015a 1CD1     		bne	.L110
 649 015c 201C     		mov	r0, r4
 650 015e FFF7FEFF 		bl	get_clust
 651 0162 3862     		str	r0, [r7, #32]
 652 0164 E27F     		ldrb	r2, [r4, #31]
 653 0166 A37F     		ldrb	r3, [r4, #30]
 654 0168 1206     		lsl	r2, r2, #24
 655 016a 1B04     		lsl	r3, r3, #16
 656 016c 1343     		orr	r3, r2
 657 016e 227F     		ldrb	r2, [r4, #28]
 658 0170 281C     		mov	r0, r5
 659 0172 1343     		orr	r3, r2
 660 0174 627F     		ldrb	r2, [r4, #29]
 661 0176 BD61     		str	r5, [r7, #24]
 662 0178 1202     		lsl	r2, r2, #8
 663 017a 1343     		orr	r3, r2
 664 017c FB61     		str	r3, [r7, #28]
 665 017e 0123     		mov	r3, #1
 666 0180 7B70     		strb	r3, [r7, #1]
 667 0182 08E0     		b	.L110
 668              	.L79:
 669 0184 0829     		cmp	r1, #8
 670 0186 00D0     		beq	.LCB756
 671 0188 66E7     		b	.L78	@long jump
 672              	.LCB756:
 673 018a 0B1C     		mov	r3, r1
 674 018c 0B21     		mov	r1, #11
 675 018e AEE7     		b	.L80
 676              	.L98:
 677 0190 0120     		mov	r0, #1
 678 0192 00E0     		b	.L110
 679              	.L101:
 680 0194 0320     		mov	r0, #3
 681              	.L110:
 682 0196 13B0     		add	sp, sp, #76
 683              		@ sp needed
 684 0198 F0BD     		pop	{r4, r5, r6, r7, pc}
 685              	.L121:
 686 019a C046     		.align	2
 687              	.L120:
 688 019c 00000000 		.word	.LANCHOR0
 690              		.section	.text.pf_read,"ax",%progbits
 691              		.align	1
 692              		.global	pf_read
 693              		.code	16
 694              		.thumb_func
 696              	pf_read:
 697 0000 F7B5     		push	{r0, r1, r2, r4, r5, r6, r7, lr}
 698 0002 2E4B     		ldr	r3, .L143
 699 0004 0190     		str	r0, [sp, #4]
 700 0006 1C68     		ldr	r4, [r3]
 701 0008 0023     		mov	r3, #0
 702 000a 171C     		mov	r7, r2
 703 000c 1360     		str	r3, [r2]
 704 000e 9C42     		cmp	r4, r3
 705 0010 52D0     		beq	.L136
 706 0012 6378     		ldrb	r3, [r4, #1]
 707 0014 0420     		mov	r0, #4
 708 0016 DA07     		lsl	r2, r3, #31
 709 0018 4FD5     		bpl	.L123
 710 001a E069     		ldr	r0, [r4, #28]
 711 001c A269     		ldr	r2, [r4, #24]
 712 001e 0D1C     		mov	r5, r1
 713 0020 831A     		sub	r3, r0, r2
 714 0022 9942     		cmp	r1, r3
 715 0024 00D9     		bls	.L124
 716 0026 1D1C     		mov	r5, r3
 717              	.L124:
 718 0028 019B     		ldr	r3, [sp, #4]
 719 002a 0093     		str	r3, [sp]
 720              	.L125:
 721 002c 002D     		cmp	r5, #0
 722 002e 41D0     		beq	.L142
 723 0030 A369     		ldr	r3, [r4, #24]
 724 0032 DA05     		lsl	r2, r3, #23
 725 0034 19D1     		bne	.L126
 726 0036 A678     		ldrb	r6, [r4, #2]
 727 0038 5A0A     		lsr	r2, r3, #9
 728 003a 013E     		sub	r6, r6, #1
 729 003c 3240     		and	r2, r6
 730 003e D6B2     		uxtb	r6, r2
 731 0040 002E     		cmp	r6, #0
 732 0042 09D1     		bne	.L127
 733 0044 002B     		cmp	r3, #0
 734 0046 01D1     		bne	.L128
 735 0048 206A     		ldr	r0, [r4, #32]
 736 004a 02E0     		b	.L129
 737              	.L128:
 738 004c 606A     		ldr	r0, [r4, #36]
 739 004e FFF7FEFF 		bl	get_fat
 740              	.L129:
 741 0052 0128     		cmp	r0, #1
 742 0054 1FD9     		bls	.L140
 743 0056 6062     		str	r0, [r4, #36]
 744              	.L127:
 745 0058 606A     		ldr	r0, [r4, #36]
 746 005a FFF7FEFF 		bl	clust2sect
 747 005e 0028     		cmp	r0, #0
 748 0060 01D1     		bne	.L131
 749 0062 6070     		strb	r0, [r4, #1]
 750 0064 19E0     		b	.L141
 751              	.L131:
 752 0066 8619     		add	r6, r0, r6
 753 0068 A662     		str	r6, [r4, #40]
 754              	.L126:
 755 006a A069     		ldr	r0, [r4, #24]
 756 006c 8023     		mov	r3, #128
 757 006e C205     		lsl	r2, r0, #23
 758 0070 D20D     		lsr	r2, r2, #23
 759 0072 9B00     		lsl	r3, r3, #2
 760 0074 9B1A     		sub	r3, r3, r2
 761 0076 2E1E     		sub	r6, r5, #0
 762 0078 9E42     		cmp	r6, r3
 763 007a 00D9     		bls	.L132
 764 007c 1E1C     		mov	r6, r3
 765              	.L132:
 766 007e 0198     		ldr	r0, [sp, #4]
 767 0080 A16A     		ldr	r1, [r4, #40]
 768 0082 431E     		sub	r3, r0, #1
 769 0084 9841     		sbc	r0, r0, r3
 770 0086 009B     		ldr	r3, [sp]
 771 0088 4042     		neg	r0, r0
 772 008a 1840     		and	r0, r3
 773 008c 331C     		mov	r3, r6
 774 008e FFF7FEFF 		bl	disk_readp
 775 0092 0028     		cmp	r0, #0
 776 0094 03D0     		beq	.L134
 777              	.L140:
 778 0096 0023     		mov	r3, #0
 779 0098 6370     		strb	r3, [r4, #1]
 780              	.L141:
 781 009a 0120     		mov	r0, #1
 782 009c 0DE0     		b	.L123
 783              	.L134:
 784 009e A069     		ldr	r0, [r4, #24]
 785 00a0 009A     		ldr	r2, [sp]
 786 00a2 8319     		add	r3, r0, r6
 787 00a4 A361     		str	r3, [r4, #24]
 788 00a6 3B68     		ldr	r3, [r7]
 789 00a8 9219     		add	r2, r2, r6
 790 00aa AD1B     		sub	r5, r5, r6
 791 00ac 9E19     		add	r6, r3, r6
 792 00ae 0092     		str	r2, [sp]
 793 00b0 3E60     		str	r6, [r7]
 794 00b2 BBE7     		b	.L125
 795              	.L142:
 796 00b4 281C     		mov	r0, r5
 797 00b6 00E0     		b	.L123
 798              	.L136:
 799 00b8 0520     		mov	r0, #5
 800              	.L123:
 801              		@ sp needed
 802 00ba FEBD     		pop	{r1, r2, r3, r4, r5, r6, r7, pc}
 803              	.L144:
 804              		.align	2
 805              	.L143:
 806 00bc 00000000 		.word	.LANCHOR0
 808              		.section	.text.pf_lseek,"ax",%progbits
 809              		.align	1
 810              		.global	pf_lseek
 811              		.code	16
 812              		.thumb_func
 814              	pf_lseek:
 815 0000 294B     		ldr	r3, .L165
 816 0002 F7B5     		push	{r0, r1, r2, r4, r5, r6, r7, lr}
 817 0004 1C68     		ldr	r4, [r3]
 818 0006 051C     		mov	r5, r0
 819 0008 002C     		cmp	r4, #0
 820 000a 4AD0     		beq	.L155
 821 000c 6378     		ldrb	r3, [r4, #1]
 822 000e 0420     		mov	r0, #4
 823 0010 DA07     		lsl	r2, r3, #31
 824 0012 47D5     		bpl	.L146
 825 0014 E369     		ldr	r3, [r4, #28]
 826 0016 9D42     		cmp	r5, r3
 827 0018 00D9     		bls	.L147
 828 001a 1D1C     		mov	r5, r3
 829              	.L147:
 830 001c 0020     		mov	r0, #0
 831 001e A369     		ldr	r3, [r4, #24]
 832 0020 A061     		str	r0, [r4, #24]
 833 0022 8542     		cmp	r5, r0
 834 0024 3ED0     		beq	.L146
 835 0026 A678     		ldrb	r6, [r4, #2]
 836 0028 7602     		lsl	r6, r6, #9
 837 002a 8342     		cmp	r3, r0
 838 002c 12D0     		beq	.L148
 839 002e 311C     		mov	r1, r6
 840 0030 681E     		sub	r0, r5, #1
 841 0032 5F1E     		sub	r7, r3, #1
 842 0034 FFF7FEFF 		bl	__aeabi_uidiv
 843 0038 311C     		mov	r1, r6
 844 003a 0190     		str	r0, [sp, #4]
 845 003c 381C     		mov	r0, r7
 846 003e FFF7FEFF 		bl	__aeabi_uidiv
 847 0042 019B     		ldr	r3, [sp, #4]
 848 0044 8342     		cmp	r3, r0
 849 0046 05D3     		bcc	.L148
 850 0048 7342     		neg	r3, r6
 851 004a 3B40     		and	r3, r7
 852 004c A361     		str	r3, [r4, #24]
 853 004e ED1A     		sub	r5, r5, r3
 854 0050 606A     		ldr	r0, [r4, #36]
 855 0052 0EE0     		b	.L150
 856              	.L148:
 857 0054 206A     		ldr	r0, [r4, #32]
 858 0056 6062     		str	r0, [r4, #36]
 859 0058 0BE0     		b	.L150
 860              	.L153:
 861 005a FFF7FEFF 		bl	get_fat
 862 005e 0128     		cmp	r0, #1
 863 0060 0AD9     		bls	.L151
 864 0062 A268     		ldr	r2, [r4, #8]
 865 0064 9042     		cmp	r0, r2
 866 0066 07D2     		bcs	.L151
 867 0068 A269     		ldr	r2, [r4, #24]
 868 006a 6062     		str	r0, [r4, #36]
 869 006c 9319     		add	r3, r2, r6
 870 006e A361     		str	r3, [r4, #24]
 871 0070 AD1B     		sub	r5, r5, r6
 872              	.L150:
 873 0072 B542     		cmp	r5, r6
 874 0074 F1D8     		bhi	.L153
 875 0076 02E0     		b	.L164
 876              	.L151:
 877 0078 0023     		mov	r3, #0
 878 007a 6370     		strb	r3, [r4, #1]
 879 007c 07E0     		b	.L163
 880              	.L164:
 881 007e A369     		ldr	r3, [r4, #24]
 882 0080 ED18     		add	r5, r5, r3
 883 0082 A561     		str	r5, [r4, #24]
 884 0084 FFF7FEFF 		bl	clust2sect
 885 0088 0028     		cmp	r0, #0
 886 008a 02D1     		bne	.L154
 887 008c 6070     		strb	r0, [r4, #1]
 888              	.L163:
 889 008e 0120     		mov	r0, #1
 890 0090 08E0     		b	.L146
 891              	.L154:
 892 0092 A378     		ldrb	r3, [r4, #2]
 893 0094 6D0A     		lsr	r5, r5, #9
 894 0096 013B     		sub	r3, r3, #1
 895 0098 1D40     		and	r5, r3
 896 009a 2818     		add	r0, r5, r0
 897 009c A062     		str	r0, [r4, #40]
 898 009e 0020     		mov	r0, #0
 899 00a0 00E0     		b	.L146
 900              	.L155:
 901 00a2 0520     		mov	r0, #5
 902              	.L146:
 903              		@ sp needed
 904 00a4 FEBD     		pop	{r1, r2, r3, r4, r5, r6, r7, pc}
 905              	.L166:
 906 00a6 C046     		.align	2
 907              	.L165:
 908 00a8 00000000 		.word	.LANCHOR0
 910              		.section	.bss.FatFs,"aw",%nobits
 911              		.align	2
 912              		.set	.LANCHOR0,. + 0
 915              	FatFs:
 916 0000 00000000 		.space	4
 917              		.ident	"GCC: (GNU Tools for ARM Embedded Processors) 4.8.3 20140228 (release) [ARM/embedded-4_8-br
DEFINED SYMBOLS
                            *ABS*:00000000 pff.c
C:\cygwin\tmp\ccfMLjeY.s:15     .text.clust2sect:00000000 $t
C:\cygwin\tmp\ccfMLjeY.s:19     .text.clust2sect:00000000 clust2sect
C:\cygwin\tmp\ccfMLjeY.s:38     .text.clust2sect:0000001c $d
C:\cygwin\tmp\ccfMLjeY.s:41     .text.get_clust:00000000 $t
C:\cygwin\tmp\ccfMLjeY.s:45     .text.get_clust:00000000 get_clust
C:\cygwin\tmp\ccfMLjeY.s:68     .text.get_clust:00000024 $d
C:\cygwin\tmp\ccfMLjeY.s:71     .text.dir_rewind:00000000 $t
C:\cygwin\tmp\ccfMLjeY.s:75     .text.dir_rewind:00000000 dir_rewind
C:\cygwin\tmp\ccfMLjeY.s:116    .text.dir_rewind:00000040 $d
C:\cygwin\tmp\ccfMLjeY.s:119    .text.get_fat:00000000 $t
C:\cygwin\tmp\ccfMLjeY.s:123    .text.get_fat:00000000 get_fat
C:\cygwin\tmp\ccfMLjeY.s:188    .text.get_fat:00000074 $d
C:\cygwin\tmp\ccfMLjeY.s:191    .text.check_fs:00000000 $t
C:\cygwin\tmp\ccfMLjeY.s:195    .text.check_fs:00000000 check_fs
C:\cygwin\tmp\ccfMLjeY.s:258    .text.check_fs:00000074 $d
C:\cygwin\tmp\ccfMLjeY.s:264    .text.pf_mount:00000000 $t
C:\cygwin\tmp\ccfMLjeY.s:269    .text.pf_mount:00000000 pf_mount
C:\cygwin\tmp\ccfMLjeY.s:449    .text.pf_mount:00000150 $d
C:\cygwin\tmp\ccfMLjeY.s:455    .text.pf_open:00000000 $t
C:\cygwin\tmp\ccfMLjeY.s:460    .text.pf_open:00000000 pf_open
C:\cygwin\tmp\ccfMLjeY.s:688    .text.pf_open:0000019c $d
C:\cygwin\tmp\ccfMLjeY.s:691    .text.pf_read:00000000 $t
C:\cygwin\tmp\ccfMLjeY.s:696    .text.pf_read:00000000 pf_read
C:\cygwin\tmp\ccfMLjeY.s:806    .text.pf_read:000000bc $d
C:\cygwin\tmp\ccfMLjeY.s:809    .text.pf_lseek:00000000 $t
C:\cygwin\tmp\ccfMLjeY.s:814    .text.pf_lseek:00000000 pf_lseek
C:\cygwin\tmp\ccfMLjeY.s:908    .text.pf_lseek:000000a8 $d
C:\cygwin\tmp\ccfMLjeY.s:911    .bss.FatFs:00000000 $d
C:\cygwin\tmp\ccfMLjeY.s:915    .bss.FatFs:00000000 FatFs

UNDEFINED SYMBOLS
disk_readp
__aeabi_uidiv
disk_initialize
